; Function Attrs: nounwind uwtable
define dso_local range(i32 0, 28) i32 @Curl_pollfds_add_ps(ptr noundef captures(none) %0, ptr noundef readonly captures(none) %1) local_unnamed_addr #0 {
  %3 = getelementptr inbounds nuw i8, ptr %1, i64 20
  %4 = load i32, ptr %3, align 4, !tbaa !23
  %.not = icmp eq i32 %4, 0
  br i1 %.not, label %cpfds_add_sock.exit, label %.lr.ph

.lr.ph:                                           ; preds = %2
  %5 = getelementptr inbounds nuw i8, ptr %1, i64 24
  %6 = getelementptr inbounds nuw i8, ptr %0, i64 8
  %7 = getelementptr inbounds nuw i8, ptr %0, i64 12
  %8 = getelementptr inbounds nuw i8, ptr %0, i64 16
  br label %9

9:                                                ; preds = %.lr.ph, %.critedge
  %.pre28 = phi i32 [ %4, %.lr.ph ], [ %.pre29, %.critedge ]
  %10 = phi i32 [ %4, %.lr.ph ], [ %57, %.critedge ]
  %.01625 = phi i64 [ 0, %.lr.ph ], [ %58, %.critedge ]
  %11 = getelementptr inbounds nuw [5 x i8], ptr %5, i64 0, i64 %.01625
  %12 = load i8, ptr %11, align 1, !tbaa !25
  %13 = and i8 %12, 1
  %14 = shl i8 %12, 1
  %15 = and i8 %14, 4
  %.124 = or disjoint i8 %15, %13
  %.1 = zext nneg i8 %.124 to i16
  %.not20 = icmp eq i8 %.124, 0
  br i1 %.not20, label %.critedge, label %16

16:                                               ; preds = %9
  %17 = getelementptr inbounds nuw [5 x i32], ptr %1, i64 0, i64 %.01625
  %18 = load i32, ptr %17, align 4, !tbaa !4
  %19 = load i32, ptr %6, align 8, !tbaa !22
  %20 = icmp sgt i32 %19, -1
  br i1 %20, label %.preheader.preheader.i, label %.loopexit.i

.preheader.preheader.i:                           ; preds = %16
  %21 = zext nneg i32 %19 to i64
  br label %.preheader.i

.preheader.i:                                     ; preds = %23, %.preheader.preheader.i
  %indvars.iv.i = phi i64 [ %21, %.preheader.preheader.i ], [ %indvars.iv.next.i, %23 ]
  %22 = icmp sgt i64 %indvars.iv.i, 0
  br i1 %22, label %23, label %.loopexit.i

23:                                               ; preds = %.preheader.i
  %indvars.iv.next.i = add nsw i64 %indvars.iv.i, -1
  %24 = load ptr, ptr %0, align 8, !tbaa !16
  %25 = getelementptr inbounds nuw %struct.pollfd, ptr %24, i64 %indvars.iv.next.i
  %26 = load i32, ptr %25, align 4, !tbaa !8
  %27 = icmp eq i32 %18, %26
  br i1 %27, label %28, label %.preheader.i, !llvm.loop !26

28:                                               ; preds = %23
  %29 = getelementptr inbounds nuw %struct.pollfd, ptr %24, i64 %indvars.iv.next.i, i32 1
  %30 = load i16, ptr %29, align 4, !tbaa !11
  %31 = or i16 %30, %.1
  store i16 %31, ptr %29, align 4, !tbaa !11
  br label %.critedge

.loopexit.i:                                      ; preds = %.preheader.i, %16
  %32 = load i32, ptr %7, align 4, !tbaa !20
  %.not.i = icmp ult i32 %19, %32
  br i1 %.not.i, label %.loopexit._crit_edge.i, label %33

.loopexit._crit_edge.i:                           ; preds = %.loopexit.i
  %.pre30.i = load ptr, ptr %0, align 8, !tbaa !16
  br label %50

33:                                               ; preds = %.loopexit.i
  %34 = add i32 %32, 100
  %35 = load ptr, ptr @Curl_ccalloc, align 8, !tbaa !21
  %36 = zext i32 %34 to i64
  %37 = tail call ptr %35(i64 noundef %36, i64 noundef 8) #10
  %.not.i.i = icmp eq ptr %37, null
  br i1 %.not.i.i, label %cpfds_add_sock.exit, label %38

38:                                               ; preds = %33
  %39 = load ptr, ptr %0, align 8, !tbaa !16
  %40 = load i32, ptr %7, align 4, !tbaa !20
  %41 = zext i32 %40 to i64
  %42 = shl nuw nsw i64 %41, 3
  tail call void @llvm.memcpy.p0.p0.i64(ptr nonnull align 4 %37, ptr align 4 %39, i64 %42, i1 false)
  %43 = load i8, ptr %8, align 8
  %44 = and i8 %43, 1
  %.not15.i.i = icmp eq i8 %44, 0
  br i1 %.not15.i.i, label %cpfds_increase.exit.thread.i, label %45

45:                                               ; preds = %38
  %46 = load ptr, ptr @Curl_cfree, align 8, !tbaa !21
  %47 = load ptr, ptr %0, align 8, !tbaa !16
  tail call void %46(ptr noundef %47) #10
  %.pre.i.i = load i8, ptr %8, align 8
  br label %cpfds_increase.exit.thread.i

cpfds_increase.exit.thread.i:                     ; preds = %45, %38
  %48 = phi i8 [ %.pre.i.i, %45 ], [ %43, %38 ]
  store ptr %37, ptr %0, align 8, !tbaa !16
  store i32 %34, ptr %7, align 4, !tbaa !20
  %49 = or i8 %48, 1
  store i8 %49, ptr %8, align 8
  %.pre31.i = load i32, ptr %6, align 8, !tbaa !22
  %.pre.pre = load i32, ptr %3, align 4, !tbaa !23
  br label %50

50:                                               ; preds = %cpfds_increase.exit.thread.i, %.loopexit._crit_edge.i
  %.pre = phi i32 [ %.pre28, %.loopexit._crit_edge.i ], [ %.pre.pre, %cpfds_increase.exit.thread.i ]
  %51 = phi i32 [ %19, %.loopexit._crit_edge.i ], [ %.pre31.i, %cpfds_increase.exit.thread.i ]
  %52 = phi ptr [ %.pre30.i, %.loopexit._crit_edge.i ], [ %37, %cpfds_increase.exit.thread.i ]
  %53 = zext i32 %51 to i64
  %54 = getelementptr inbounds nuw %struct.pollfd, ptr %52, i64 %53
  store i32 %18, ptr %54, align 4, !tbaa !8
  %55 = getelementptr inbounds nuw %struct.pollfd, ptr %52, i64 %53, i32 1
  store i16 %.1, ptr %55, align 4, !tbaa !11
  %56 = add i32 %51, 1
  store i32 %56, ptr %6, align 8, !tbaa !22
  br label %.critedge

.critedge:                                        ; preds = %50, %28, %9
  %.pre29 = phi i32 [ %.pre, %50 ], [ %.pre28, %28 ], [ %.pre28, %9 ]
  %57 = phi i32 [ %.pre, %50 ], [ %10, %28 ], [ %10, %9 ]
  %58 = add nuw nsw i64 %.01625, 1
  %59 = zext i32 %57 to i64
  %60 = icmp samesign ult i64 %58, %59
  br i1 %60, label %9, label %cpfds_add_sock.exit, !llvm.loop !27

cpfds_add_sock.exit:                              ; preds = %.critedge, %33, %2
  %.2 = phi i32 [ 0, %2 ], [ 27, %33 ], [ 0, %.critedge ]
  ret i32 %.2
}